target datalayout = "e-m:e-p270:32:32-p271:32:32-p272:64:64-i64:64-i128:128-f80:128-n8:16:32:64-S128"
target triple = "x86_64-unknown-linux-gnu"

%struct.QemuTextConsole = type { %struct.QemuConsole, i32, i32, i32, i32, i32, i32, i32, i32, ptr, [2 x i32], [2 x i32], i32, i32, i32, i32, i32, i32, ptr, %struct.Fifo8 }
%struct.QemuConsole = type { %struct.Object, i32, ptr, ptr, %struct.DisplayScanout, i32, ptr, i32, ptr, i32, %struct.QemuUIInfo, ptr, ptr, ptr, %struct.CoQueue, %union.anon.0 }
%struct.Object = type { ptr, ptr, ptr, i32, ptr }
%struct.DisplayScanout = type { i32, %union.anon }
%union.anon = type { %struct.ScanoutTexture }
%struct.ScanoutTexture = type { i32, i8, i32, i32, i32, i32, i32, i32, ptr }
%struct.QemuUIInfo = type { i16, i16, i32, i32, i32, i32, i32 }
%struct.CoQueue = type { %struct.anon }
%struct.anon = type { ptr, ptr }
%union.anon.0 = type { %struct.QTailQLink }
%struct.QTailQLink = type { ptr, ptr }
%struct.Fifo8 = type { ptr, i32, i32, i32 }
%struct.TextCell = type <{ i8, %struct.TextAttributes }>
%struct.TextAttributes = type { i16 }

@cursor_visible_phase = internal global i8 0, align 1
@.str.3 = private unnamed_addr constant [13 x i8] c"qemu-console\00", align 1
@.str.4 = private unnamed_addr constant [99 x i8] c"/home/dtcxzyw/WorkSpace/Projects/compilers/llvm-opt-benchmark/bench/qemu/qemu/include/ui/console.h\00", align 1
@__const.console_show_cursor.t_attrib = private unnamed_addr constant { i8, i8 } { i8 7, i8 0 }, align 1
@__func__.QEMU_CONSOLE = private unnamed_addr constant [13 x i8] c"QEMU_CONSOLE\00", align 1

; Function Attrs: nounwind sspstrong uwtable
define internal void @invalidate_xy(ptr noundef %s, i32 noundef %x, i32 noundef %y) #0 {
entry:
  %s.addr = alloca ptr, align 8
  %x.addr = alloca i32, align 4
  %y.addr = alloca i32, align 4
  store ptr %s, ptr %s.addr, align 8
  store i32 %x, ptr %x.addr, align 4
  store i32 %y, ptr %y.addr, align 4
  %0 = load ptr, ptr %s.addr, align 8
  %call = call ptr @QEMU_CONSOLE(ptr noundef %0)
  %call1 = call zeroext i1 @qemu_console_is_visible(ptr noundef %call)
  br i1 %call1, label %if.end, label %if.then

if.then:                                          ; preds = %entry
  br label %if.end26

if.end:                                           ; preds = %entry
  %1 = load ptr, ptr %s.addr, align 8
  %update_x0 = getelementptr inbounds %struct.QemuTextConsole, ptr %1, i32 0, i32 14
  %2 = load i32, ptr %update_x0, align 8
  %3 = load i32, ptr %x.addr, align 4
  %mul = mul i32 %3, 8
  %cmp = icmp sgt i32 %2, %mul
  br i1 %cmp, label %if.then2, label %if.end5

if.then2:                                         ; preds = %if.end
  %4 = load i32, ptr %x.addr, align 4
  %mul3 = mul i32 %4, 8
  %5 = load ptr, ptr %s.addr, align 8
  %update_x04 = getelementptr inbounds %struct.QemuTextConsole, ptr %5, i32 0, i32 14
  store i32 %mul3, ptr %update_x04, align 8
  br label %if.end5

if.end5:                                          ; preds = %if.then2, %if.end
  %6 = load ptr, ptr %s.addr, align 8
  %update_y0 = getelementptr inbounds %struct.QemuTextConsole, ptr %6, i32 0, i32 15
  %7 = load i32, ptr %update_y0, align 4
  %8 = load i32, ptr %y.addr, align 4
  %mul6 = mul i32 %8, 16
  %cmp7 = icmp sgt i32 %7, %mul6
  br i1 %cmp7, label %if.then8, label %if.end11

if.then8:                                         ; preds = %if.end5
  %9 = load i32, ptr %y.addr, align 4
  %mul9 = mul i32 %9, 16
  %10 = load ptr, ptr %s.addr, align 8
  %update_y010 = getelementptr inbounds %struct.QemuTextConsole, ptr %10, i32 0, i32 15
  store i32 %mul9, ptr %update_y010, align 4
  br label %if.end11

if.end11:                                         ; preds = %if.then8, %if.end5
  %11 = load ptr, ptr %s.addr, align 8
  %update_x1 = getelementptr inbounds %struct.QemuTextConsole, ptr %11, i32 0, i32 16
  %12 = load i32, ptr %update_x1, align 8
  %13 = load i32, ptr %x.addr, align 4
  %add = add i32 %13, 1
  %mul12 = mul i32 %add, 8
  %cmp13 = icmp slt i32 %12, %mul12
  br i1 %cmp13, label %if.then14, label %if.end18

if.then14:                                        ; preds = %if.end11
  %14 = load i32, ptr %x.addr, align 4
  %add15 = add i32 %14, 1
  %mul16 = mul i32 %add15, 8
  %15 = load ptr, ptr %s.addr, align 8
  %update_x117 = getelementptr inbounds %struct.QemuTextConsole, ptr %15, i32 0, i32 16
  store i32 %mul16, ptr %update_x117, align 8
  br label %if.end18

if.end18:                                         ; preds = %if.then14, %if.end11
  %16 = load ptr, ptr %s.addr, align 8
  %update_y1 = getelementptr inbounds %struct.QemuTextConsole, ptr %16, i32 0, i32 17
  %17 = load i32, ptr %update_y1, align 4
  %18 = load i32, ptr %y.addr, align 4
  %add19 = add i32 %18, 1
  %mul20 = mul i32 %add19, 16
  %cmp21 = icmp slt i32 %17, %mul20
  br i1 %cmp21, label %if.then22, label %if.end26

if.then22:                                        ; preds = %if.end18
  %19 = load i32, ptr %y.addr, align 4
  %add23 = add i32 %19, 1
  %mul24 = mul i32 %add23, 16
  %20 = load ptr, ptr %s.addr, align 8
  %update_y125 = getelementptr inbounds %struct.QemuTextConsole, ptr %20, i32 0, i32 17
  store i32 %mul24, ptr %update_y125, align 4
  br label %if.end26

if.end26:                                         ; preds = %if.then22, %if.end18, %if.then
  ret void
}

; Function Attrs: nounwind sspstrong uwtable
define internal ptr @QEMU_CONSOLE(ptr noundef %obj) #0 {
entry:
  %obj.addr = alloca ptr, align 8
  store ptr %obj, ptr %obj.addr, align 8
  %0 = load ptr, ptr %obj.addr, align 8
  %call = call ptr @object_dynamic_cast_assert(ptr noundef %0, ptr noundef @.str.3, ptr noundef @.str.4, i32 noundef 12, ptr noundef @__func__.QEMU_CONSOLE)
  ret ptr %call
}

; Function Attrs: nounwind sspstrong uwtable
define internal void @console_show_cursor(ptr noundef %s, i32 noundef %show) #0 {
entry:
  %s.addr = alloca ptr, align 8
  %show.addr = alloca i32, align 4
  %c = alloca ptr, align 8
  %y = alloca i32, align 4
  %y1 = alloca i32, align 4
  %x = alloca i32, align 4
  %t_attrib = alloca %struct.TextAttributes, align 1
  store ptr %s, ptr %s.addr, align 8
  store i32 %show, ptr %show.addr, align 4
  %0 = load ptr, ptr %s.addr, align 8
  %x1 = getelementptr inbounds %struct.QemuTextConsole, ptr %0, i32 0, i32 5
  %1 = load i32, ptr %x1, align 8
  store i32 %1, ptr %x, align 4
  %2 = load ptr, ptr %s.addr, align 8
  %cursor_invalidate = getelementptr inbounds %struct.QemuTextConsole, ptr %2, i32 0, i32 12
  store i32 1, ptr %cursor_invalidate, align 8
  %3 = load i32, ptr %x, align 4
  %4 = load ptr, ptr %s.addr, align 8
  %width = getelementptr inbounds %struct.QemuTextConsole, ptr %4, i32 0, i32 1
  %5 = load i32, ptr %width, align 8
  %cmp = icmp sge i32 %3, %5
  br i1 %cmp, label %if.then, label %if.end

if.then:                                          ; preds = %entry
  %6 = load ptr, ptr %s.addr, align 8
  %width2 = getelementptr inbounds %struct.QemuTextConsole, ptr %6, i32 0, i32 1
  %7 = load i32, ptr %width2, align 8
  %sub = sub i32 %7, 1
  store i32 %sub, ptr %x, align 4
  br label %if.end

if.end:                                           ; preds = %if.then, %entry
  %8 = load ptr, ptr %s.addr, align 8
  %y_base = getelementptr inbounds %struct.QemuTextConsole, ptr %8, i32 0, i32 8
  %9 = load i32, ptr %y_base, align 4
  %10 = load ptr, ptr %s.addr, align 8
  %y3 = getelementptr inbounds %struct.QemuTextConsole, ptr %10, i32 0, i32 6
  %11 = load i32, ptr %y3, align 4
  %add = add i32 %9, %11
  %12 = load ptr, ptr %s.addr, align 8
  %total_height = getelementptr inbounds %struct.QemuTextConsole, ptr %12, i32 0, i32 3
  %13 = load i32, ptr %total_height, align 8
  %rem = srem i32 %add, %13
  store i32 %rem, ptr %y1, align 4
  %14 = load i32, ptr %y1, align 4
  %15 = load ptr, ptr %s.addr, align 8
  %y_displayed = getelementptr inbounds %struct.QemuTextConsole, ptr %15, i32 0, i32 7
  %16 = load i32, ptr %y_displayed, align 8
  %sub4 = sub i32 %14, %16
  store i32 %sub4, ptr %y, align 4
  %17 = load i32, ptr %y, align 4
  %cmp5 = icmp slt i32 %17, 0
  br i1 %cmp5, label %if.then6, label %if.end9

if.then6:                                         ; preds = %if.end
  %18 = load ptr, ptr %s.addr, align 8
  %total_height7 = getelementptr inbounds %struct.QemuTextConsole, ptr %18, i32 0, i32 3
  %19 = load i32, ptr %total_height7, align 8
  %20 = load i32, ptr %y, align 4
  %add8 = add i32 %20, %19
  store i32 %add8, ptr %y, align 4
  br label %if.end9

if.end9:                                          ; preds = %if.then6, %if.end
  %21 = load i32, ptr %y, align 4
  %22 = load ptr, ptr %s.addr, align 8
  %height = getelementptr inbounds %struct.QemuTextConsole, ptr %22, i32 0, i32 2
  %23 = load i32, ptr %height, align 4
  %cmp10 = icmp slt i32 %21, %23
  br i1 %cmp10, label %if.then11, label %if.end25

if.then11:                                        ; preds = %if.end9
  %24 = load ptr, ptr %s.addr, align 8
  %cells = getelementptr inbounds %struct.QemuTextConsole, ptr %24, i32 0, i32 9
  %25 = load ptr, ptr %cells, align 8
  %26 = load i32, ptr %y1, align 4
  %27 = load ptr, ptr %s.addr, align 8
  %width12 = getelementptr inbounds %struct.QemuTextConsole, ptr %27, i32 0, i32 1
  %28 = load i32, ptr %width12, align 8
  %mul = mul i32 %26, %28
  %29 = load i32, ptr %x, align 4
  %add13 = add i32 %mul, %29
  %idxprom = sext i32 %add13 to i64
  %arrayidx = getelementptr %struct.TextCell, ptr %25, i64 %idxprom
  store ptr %arrayidx, ptr %c, align 8
  %30 = load i32, ptr %show.addr, align 4
  %tobool = icmp ne i32 %30, 0
  br i1 %tobool, label %land.lhs.true, label %if.else

land.lhs.true:                                    ; preds = %if.then11
  %31 = load i8, ptr @cursor_visible_phase, align 1
  %tobool14 = trunc i8 %31 to i1
  br i1 %tobool14, label %if.then15, label %if.else

if.then15:                                        ; preds = %land.lhs.true
  call void @llvm.memcpy.p0.p0.i64(ptr align 1 %t_attrib, ptr align 1 @__const.console_show_cursor.t_attrib, i64 2, i1 false)
  %bf.load = load i16, ptr %t_attrib, align 1
  %bf.lshr = lshr i16 %bf.load, 11
  %bf.clear = and i16 %bf.lshr, 1
  %bf.cast = trunc i16 %bf.clear to i8
  %tobool16 = icmp ne i8 %bf.cast, 0
  %lnot = xor i1 %tobool16, true
  %lnot.ext = zext i1 %lnot to i32
  %conv = trunc i32 %lnot.ext to i8
  %32 = zext i8 %conv to i16
  %bf.load17 = load i16, ptr %t_attrib, align 1
  %bf.value = and i16 %32, 1
  %bf.shl = shl i16 %bf.value, 11
  %bf.clear18 = and i16 %bf.load17, -2049
  %bf.set = or i16 %bf.clear18, %bf.shl
  store i16 %bf.set, ptr %t_attrib, align 1
  %33 = load ptr, ptr %s.addr, align 8
  %call = call ptr @QEMU_CONSOLE(ptr noundef %33)
  %34 = load i32, ptr %x, align 4
  %35 = load i32, ptr %y, align 4
  %36 = load ptr, ptr %c, align 8
  %ch = getelementptr inbounds %struct.TextCell, ptr %36, i32 0, i32 0
  %37 = load i8, ptr %ch, align 1
  %conv19 = zext i8 %37 to i32
  call void @vga_putcharxy(ptr noundef %call, i32 noundef %34, i32 noundef %35, i32 noundef %conv19, ptr noundef %t_attrib)
  br label %if.end24

if.else:                                          ; preds = %land.lhs.true, %if.then11
  %38 = load ptr, ptr %s.addr, align 8
  %call20 = call ptr @QEMU_CONSOLE(ptr noundef %38)
  %39 = load i32, ptr %x, align 4
  %40 = load i32, ptr %y, align 4
  %41 = load ptr, ptr %c, align 8
  %ch21 = getelementptr inbounds %struct.TextCell, ptr %41, i32 0, i32 0
  %42 = load i8, ptr %ch21, align 1
  %conv22 = zext i8 %42 to i32
  %43 = load ptr, ptr %c, align 8
  %t_attrib23 = getelementptr inbounds %struct.TextCell, ptr %43, i32 0, i32 1
  call void @vga_putcharxy(ptr noundef %call20, i32 noundef %39, i32 noundef %40, i32 noundef %conv22, ptr noundef %t_attrib23)
  br label %if.end24

if.end24:                                         ; preds = %if.else, %if.then15
  %44 = load ptr, ptr %s.addr, align 8
  %45 = load i32, ptr %x, align 4
  %46 = load i32, ptr %y, align 4
  call void @invalidate_xy(ptr noundef %44, i32 noundef %45, i32 noundef %46)
  br label %if.end25

if.end25:                                         ; preds = %if.end24, %if.end9
  ret void
}