; Function Attrs: nounwind sspstrong uwtable
define internal fastcc void @console_show_cursor(ptr noundef initializes((288, 292)) %s, i32 noundef range(i32 0, 2) %show) unnamed_addr #0 {
entry:
  %t_attrib = alloca %struct.TextAttributes, align 2
  %x1 = getelementptr inbounds nuw i8, ptr %s, i64 248
  %0 = load i32, ptr %x1, align 8
  %cursor_invalidate = getelementptr inbounds nuw i8, ptr %s, i64 288
  store i32 1, ptr %cursor_invalidate, align 8
  %width = getelementptr inbounds nuw i8, ptr %s, i64 232
  %1 = load i32, ptr %width, align 8
  %cmp.not = icmp slt i32 %0, %1
  %sub = add i32 %1, -1
  %spec.select = select i1 %cmp.not, i32 %0, i32 %sub
  %y_base = getelementptr inbounds nuw i8, ptr %s, i64 260
  %2 = load i32, ptr %y_base, align 4
  %y3 = getelementptr inbounds nuw i8, ptr %s, i64 252
  %3 = load i32, ptr %y3, align 4
  %add = add i32 %3, %2
  %total_height = getelementptr inbounds nuw i8, ptr %s, i64 240
  %4 = load i32, ptr %total_height, align 8
  %rem = srem i32 %add, %4
  %y_displayed = getelementptr inbounds nuw i8, ptr %s, i64 256
  %5 = load i32, ptr %y_displayed, align 8
  %sub4 = sub i32 %rem, %5
  %cmp5 = icmp slt i32 %sub4, 0
  %add8 = select i1 %cmp5, i32 %4, i32 0
  %y.0 = add i32 %add8, %sub4
  %height = getelementptr inbounds nuw i8, ptr %s, i64 236
  %6 = load i32, ptr %height, align 4
  %cmp10 = icmp slt i32 %y.0, %6
  br i1 %cmp10, label %if.then11, label %if.end25

if.then11:                                        ; preds = %entry
  %cells = getelementptr inbounds nuw i8, ptr %s, i64 264
  %7 = load ptr, ptr %cells, align 8
  %mul = mul i32 %rem, %1
  %add13 = add i32 %mul, %spec.select
  %idxprom = sext i32 %add13 to i64
  %arrayidx = getelementptr %struct.TextCell, ptr %7, i64 %idxprom
  %tobool.not = icmp eq i32 %show, 0
  br i1 %tobool.not, label %if.else, label %land.lhs.true

land.lhs.true:                                    ; preds = %if.then11
  %8 = load i8, ptr @cursor_visible_phase, align 1
  %tobool14 = trunc nuw i8 %8 to i1
  br i1 %tobool14, label %if.then15, label %if.else

if.then15:                                        ; preds = %land.lhs.true
  store i16 2055, ptr %t_attrib, align 2
  %call.i = tail call ptr @object_dynamic_cast_assert(ptr noundef nonnull %s, ptr noundef nonnull @.str.3, ptr noundef nonnull @.str.4, i32 noundef 12, ptr noundef nonnull @__func__.QEMU_CONSOLE) #12
  %9 = load i8, ptr %arrayidx, align 1
  %conv19 = zext i8 %9 to i32
  call fastcc void @vga_putcharxy(ptr noundef %call.i, i32 noundef %spec.select, i32 noundef %y.0, i32 noundef %conv19, ptr noundef nonnull %t_attrib)
  br label %if.end24

if.else:                                          ; preds = %land.lhs.true, %if.then11
  %call.i28 = tail call ptr @object_dynamic_cast_assert(ptr noundef nonnull %s, ptr noundef nonnull @.str.3, ptr noundef nonnull @.str.4, i32 noundef 12, ptr noundef nonnull @__func__.QEMU_CONSOLE) #12
  %10 = load i8, ptr %arrayidx, align 1
  %conv22 = zext i8 %10 to i32
  %t_attrib23 = getelementptr inbounds nuw i8, ptr %arrayidx, i64 1
  tail call fastcc void @vga_putcharxy(ptr noundef %call.i28, i32 noundef %spec.select, i32 noundef %y.0, i32 noundef %conv22, ptr noundef nonnull %t_attrib23)
  br label %if.end24

if.end24:                                         ; preds = %if.else, %if.then15
  %call.i.i = tail call ptr @object_dynamic_cast_assert(ptr noundef nonnull %s, ptr noundef nonnull @.str.3, ptr noundef nonnull @.str.4, i32 noundef 12, ptr noundef nonnull @__func__.QEMU_CONSOLE) #12
  %call1.i = tail call zeroext i1 @qemu_console_is_visible(ptr noundef %call.i.i) #12
  br i1 %call1.i, label %if.end.i, label %if.end25

if.end.i:                                         ; preds = %if.end24
  %update_x0.i = getelementptr inbounds nuw i8, ptr %s, i64 296
  %11 = load i32, ptr %update_x0.i, align 8
  %mul.i = shl i32 %spec.select, 3
  %cmp.i = icmp sgt i32 %11, %mul.i
  br i1 %cmp.i, label %if.then2.i, label %if.end5.i

if.then2.i:                                       ; preds = %if.end.i
  store i32 %mul.i, ptr %update_x0.i, align 8
  br label %if.end5.i

if.end5.i:                                        ; preds = %if.then2.i, %if.end.i
  %update_y0.i = getelementptr inbounds nuw i8, ptr %s, i64 300
  %12 = load i32, ptr %update_y0.i, align 4
  %mul6.i = shl i32 %y.0, 4
  %cmp7.i = icmp sgt i32 %12, %mul6.i
  br i1 %cmp7.i, label %if.then8.i, label %if.end11.i

if.then8.i:                                       ; preds = %if.end5.i
  store i32 %mul6.i, ptr %update_y0.i, align 4
  br label %if.end11.i

if.end11.i:                                       ; preds = %if.then8.i, %if.end5.i
  %update_x1.i = getelementptr inbounds nuw i8, ptr %s, i64 304
  %13 = load i32, ptr %update_x1.i, align 8
  %mul12.i = add i32 %mul.i, 8
  %cmp13.i = icmp slt i32 %13, %mul12.i
  br i1 %cmp13.i, label %if.then14.i, label %if.end18.i

if.then14.i:                                      ; preds = %if.end11.i
  store i32 %mul12.i, ptr %update_x1.i, align 8
  br label %if.end18.i

if.end18.i:                                       ; preds = %if.then14.i, %if.end11.i
  %update_y1.i = getelementptr inbounds nuw i8, ptr %s, i64 308
  %14 = load i32, ptr %update_y1.i, align 4
  %mul20.i = add i32 %mul6.i, 16
  %cmp21.i = icmp slt i32 %14, %mul20.i
  br i1 %cmp21.i, label %if.then22.i, label %if.end25

if.then22.i:                                      ; preds = %if.end18.i
  store i32 %mul20.i, ptr %update_y1.i, align 4
  br label %if.end25

if.end25:                                         ; preds = %if.then22.i, %if.end18.i, %if.end24, %entry
  ret void
}